target datalayout = "e-m:e-p270:32:32-p271:32:32-p272:64:64-i64:64-i128:128-f80:128-n8:16:32:64-S128"
target triple = "x86_64-pc-linux-gnu"

; Function Attrs: nounwind uwtable
define i32 @sws_test_transfer(i32 noundef %0, i32 noundef %1) #0 {
  %3 = alloca i32, align 4
  %4 = alloca i32, align 4
  %5 = alloca ptr, align 8
  store i32 %0, ptr %3, align 4, !tbaa !4
  store i32 %1, ptr %4, align 4, !tbaa !4
  call void @llvm.lifetime.start.p0(i64 8, ptr %5) #8
  %6 = load i32, ptr %4, align 4, !tbaa !4
  %7 = icmp ne i32 %6, 0
  br i1 %7, label %8, label %11

8:                                                ; preds = %2
  %9 = load i32, ptr %3, align 4, !tbaa !4
  %10 = call ptr @av_csp_itu_eotf_inv(i32 noundef %9)
  br label %14

11:                                               ; preds = %2
  %12 = load i32, ptr %3, align 4, !tbaa !4
  %13 = call ptr @av_csp_itu_eotf(i32 noundef %12)
  br label %14

14:                                               ; preds = %11, %8
  %15 = phi ptr [ %10, %8 ], [ %13, %11 ]
  store ptr %15, ptr %5, align 8, !tbaa !87
  %16 = load i32, ptr %3, align 4, !tbaa !4
  %17 = icmp eq i32 %16, 2
  br i1 %17, label %21, label %18

18:                                               ; preds = %14
  %19 = load ptr, ptr %5, align 8, !tbaa !87
  %20 = icmp ne ptr %19, null
  br label %21

21:                                               ; preds = %18, %14
  %22 = phi i1 [ true, %14 ], [ %20, %18 ]
  %23 = zext i1 %22 to i32
  call void @llvm.lifetime.end.p0(i64 8, ptr %5) #8
  ret i32 %23
}