; Function Attrs: nounwind uwtable
define range(i32 0, 2) i32 @sws_test_transfer(i32 noundef %0, i32 noundef %1) local_unnamed_addr #1 {
  %.not = icmp eq i32 %1, 0
  br i1 %.not, label %5, label %3

3:                                                ; preds = %2
  %4 = tail call ptr @av_csp_itu_eotf_inv(i32 noundef %0) #8
  br label %7

5:                                                ; preds = %2
  %6 = tail call ptr @av_csp_itu_eotf(i32 noundef %0) #8
  br label %7

7:                                                ; preds = %5, %3
  %8 = phi ptr [ %4, %3 ], [ %6, %5 ]
  %9 = icmp eq i32 %0, 2
  %10 = icmp ne ptr %8, null
  %11 = select i1 %9, i1 true, i1 %10
  %12 = zext i1 %11 to i32
  ret i32 %12
}